; Function Attrs: nounwind uwtable
define internal range(i32 0, 2) i32 @midx_read_object_offsets(ptr noundef %0, i64 noundef %1, ptr noundef captures(none) initializes((128, 136)) %2) #1 {
  %4 = getelementptr inbounds nuw i8, ptr %2, i64 128
  store ptr %0, ptr %4, align 8, !tbaa !4
  %5 = getelementptr inbounds nuw i8, ptr %2, i64 60
  %6 = load i32, ptr %5, align 4, !tbaa !41
  %7 = zext i32 %6 to i64
  %8 = shl nuw nsw i64 %7, 3
  %.not = icmp eq i64 %1, %8
  br i1 %.not, label %14, label %9

9:                                                ; preds = %3
  %10 = load i32, ptr @git_gettext_enabled, align 4, !tbaa !41
  %.not4.i = icmp eq i32 %10, 0
  br i1 %.not4.i, label %_.exit, label %11

11:                                               ; preds = %9
  %12 = tail call ptr @dcgettext(ptr noundef null, ptr noundef nonnull @.str.52, i32 noundef 5) #22
  br label %_.exit

_.exit:                                           ; preds = %9, %11
  %.0.i = phi ptr [ %12, %11 ], [ @.str.52, %9 ]
  %13 = tail call i32 (ptr, ...) @error(ptr noundef %.0.i) #22
  br label %14

14:                                               ; preds = %3, %_.exit
  %.0 = phi i32 [ 1, %_.exit ], [ 0, %3 ]
  ret i32 %.0
}